; Function Attrs: nounwind uwtable
define internal noalias ptr @kdf_tls1_prf_new(ptr noundef %0) #0 {
  %2 = tail call i32 @ossl_prov_is_running() #7
  %.not = icmp eq i32 %2, 0
  br i1 %.not, label %6, label %3

3:                                                ; preds = %1
  %4 = tail call noalias ptr @CRYPTO_zalloc(i64 noundef 56, ptr noundef nonnull @.str, i32 noundef 120) #7
  %.not5 = icmp eq ptr %4, null
  br i1 %.not5, label %6, label %5

5:                                                ; preds = %3
  store ptr %0, ptr %4, align 8, !tbaa !3
  br label %6

6:                                                ; preds = %3, %5, %1
  %.0 = phi ptr [ null, %1 ], [ %4, %5 ], [ null, %3 ]
  ret ptr %.0
}